target datalayout = "e-m:e-p270:32:32-p271:32:32-p272:64:64-i64:64-i128:128-f80:128-n8:16:32:64-S128"
target triple = "x86_64-pc-linux-gnu"

%"struct.Gluco2::Lit" = type { i32 }
%"struct.Gluco2::SimpSolver::ClauseDeleted" = type { ptr }
%"struct.Gluco2::SimpSolver::ElimLt" = type { ptr }
%"class.Gluco2::vec.0" = type { ptr, i32, i32 }
%"class.Gluco2::SimpSolver" = type <{ %"class.Gluco2::Solver", i32, i32, i32, i32, double, i8, i8, i8, i8, i32, i32, i32, i32, i32, i8, [7 x i8], %"class.Gluco2::vec.5", %"class.Gluco2::vec.4", %"class.Gluco2::OccLists.9", %"class.Gluco2::vec", %"class.Gluco2::Heap.11", %"class.Gluco2::Queue", %"class.Gluco2::vec.4", %"class.Gluco2::vec.4", i32, i32, i32, [4 x i8] }>
%"class.Gluco2::Solver" = type { ptr, i32, ptr, ptr, i32, i8, ptr, i64, %"class.Gluco2::vec", %"class.Gluco2::vec.0", i32, %"class.Gluco2::vec.1", %"class.Gluco2::vec.0", i32, i32, i32, double, double, double, double, i32, i32, i32, i32, i32, i32, double, double, double, double, i32, i32, i8, i8, double, ptr, i8, i64, i64, i64, i64, i64, i64, i64, i64, i64, i64, i64, i64, i64, i64, i64, i64, i64, i64, i64, i64, i64, i64, i32, i8, double, %"class.Gluco2::vec.2", double, %"class.Gluco2::OccLists", %"class.Gluco2::OccLists", %"class.Gluco2::vec.5", %"class.Gluco2::vec.5", %"class.Gluco2::vec.1", %"class.Gluco2::vec.4", %"class.Gluco2::vec.4", %"class.Gluco2::vec.0", %"class.Gluco2::vec", %"class.Gluco2::vec", %"class.Gluco2::vec.6", i32, i32, i64, %"class.Gluco2::vec.0", %"class.Gluco2::Heap", double, i8, %"class.Gluco2::vec.5", %"class.Gluco2::vec.0", %"class.Gluco2::ClauseAllocator", i32, %"class.Gluco2::bqueue", %"class.Gluco2::bqueue", float, i32, %"class.Gluco2::vec.4", %"class.Gluco2::vec.0", %"class.Gluco2::vec.0", %"class.Gluco2::vec.0", i32, double, double, i32, i64, i64, i8, i32, i32, double, double, i32, i32, %"class.Gluco2::vec", %"class.Gluco2::vec", i8, %"class.Gluco2::vec.7", %"class.Gluco2::vec.5", %"class.Gluco2::vec.0", %"class.Gluco2::vec.0", i32, i32, i32, i32, %"class.Gluco2::Heap2", %"class.Gluco2::vec", %"class.Gluco2::vec", i32, %"class.Gluco2::vec", %"class.Gluco2::vec.0" }
%"class.Gluco2::vec.2" = type { ptr, i32, i32 }
%"class.Gluco2::OccLists" = type { %"class.Gluco2::vec.3", %"class.Gluco2::vec.4", %"class.Gluco2::vec.0", %"struct.Gluco2::Solver::WatcherDeleted" }
%"class.Gluco2::vec.3" = type { ptr, i32, i32 }
%"struct.Gluco2::Solver::WatcherDeleted" = type { ptr }
%"class.Gluco2::vec.1" = type { ptr, i32, i32 }
%"class.Gluco2::vec.6" = type { ptr, i32, i32 }
%"class.Gluco2::Heap" = type { %"struct.Gluco2::Solver::VarOrderLt", %"class.Gluco2::vec", %"class.Gluco2::vec" }
%"struct.Gluco2::Solver::VarOrderLt" = type { ptr }
%"class.Gluco2::ClauseAllocator" = type { %"class.Gluco2::RegionAllocator.base", i8, [3 x i8] }
%"class.Gluco2::RegionAllocator.base" = type <{ ptr, i32, i32, i32 }>
%"class.Gluco2::bqueue" = type { %"class.Gluco2::vec.5", i32, i32, i64, i32, i32, i8, double, double }
%"class.Gluco2::vec.7" = type { ptr, i32, i32 }
%"class.Gluco2::Heap2" = type { %"struct.Gluco2::Solver::JustOrderLt2", %"class.Gluco2::vec.8", %"class.Gluco2::vec" }
%"struct.Gluco2::Solver::JustOrderLt2" = type { ptr }
%"class.Gluco2::vec.8" = type { ptr, i32, i32 }
%"class.Gluco2::vec.5" = type { ptr, i32, i32 }
%"class.Gluco2::OccLists.9" = type { %"class.Gluco2::vec.10", %"class.Gluco2::vec.4", %"class.Gluco2::vec", %"struct.Gluco2::SimpSolver::ClauseDeleted" }
%"class.Gluco2::vec.10" = type { ptr, i32, i32 }
%"class.Gluco2::vec" = type { ptr, i32, i32 }
%"class.Gluco2::Heap.11" = type { %"struct.Gluco2::SimpSolver::ElimLt", %"class.Gluco2::vec", %"class.Gluco2::vec" }
%"class.Gluco2::Queue" = type { %"class.Gluco2::vec.5", i32, i32 }
%"class.Gluco2::vec.4" = type { ptr, i32, i32 }
%"class.Gluco2::lbool" = type { i8 }

; Function Attrs: mustprogress nounwind uwtable
define linkonce_odr noundef zeroext i1 @_ZNK6Gluco25lbooleqES0_(ptr noundef nonnull align 1 dereferenceable(1) %0, i8 %1) #2 comdat align 2 {
  %3 = alloca %"class.Gluco2::lbool", align 1
  %4 = alloca ptr, align 8
  %5 = getelementptr inbounds %"class.Gluco2::lbool", ptr %3, i32 0, i32 0
  store i8 %1, ptr %5, align 1
  store ptr %0, ptr %4, align 8
  %6 = load ptr, ptr %4, align 8
  %7 = getelementptr inbounds %"class.Gluco2::lbool", ptr %3, i32 0, i32 0
  %8 = load i8, ptr %7, align 1
  %9 = zext i8 %8 to i32
  %10 = and i32 %9, 2
  %11 = getelementptr inbounds %"class.Gluco2::lbool", ptr %6, i32 0, i32 0
  %12 = load i8, ptr %11, align 1
  %13 = zext i8 %12 to i32
  %14 = and i32 %13, 2
  %15 = and i32 %10, %14
  %16 = getelementptr inbounds %"class.Gluco2::lbool", ptr %3, i32 0, i32 0
  %17 = load i8, ptr %16, align 1
  %18 = zext i8 %17 to i32
  %19 = and i32 %18, 2
  %20 = icmp ne i32 %19, 0
  %21 = xor i1 %20, true
  %22 = zext i1 %21 to i32
  %23 = getelementptr inbounds %"class.Gluco2::lbool", ptr %6, i32 0, i32 0
  %24 = load i8, ptr %23, align 1
  %25 = zext i8 %24 to i32
  %26 = getelementptr inbounds %"class.Gluco2::lbool", ptr %3, i32 0, i32 0
  %27 = load i8, ptr %26, align 1
  %28 = zext i8 %27 to i32
  %29 = icmp eq i32 %25, %28
  %30 = zext i1 %29 to i32
  %31 = and i32 %22, %30
  %32 = or i32 %15, %31
  %33 = icmp ne i32 %32, 0
  ret i1 %33
}

; Function Attrs: mustprogress uwtable
define linkonce_odr i8 @_ZNK6Gluco25lbooleoEb(ptr noundef nonnull align 1 dereferenceable(1) %0, i1 noundef zeroext %1) #1 comdat align 2 {
  %3 = alloca %"class.Gluco2::lbool", align 1
  %4 = alloca ptr, align 8
  %5 = alloca i8, align 1
  store ptr %0, ptr %4, align 8
  %6 = zext i1 %1 to i8
  store i8 %6, ptr %5, align 1
  %7 = load ptr, ptr %4, align 8
  %8 = getelementptr inbounds %"class.Gluco2::lbool", ptr %7, i32 0, i32 0
  %9 = load i8, ptr %8, align 1
  %10 = zext i8 %9 to i32
  %11 = load i8, ptr %5, align 1
  %12 = trunc i8 %11 to i1
  %13 = zext i1 %12 to i8
  %14 = zext i8 %13 to i32
  %15 = xor i32 %10, %14
  %16 = trunc i32 %15 to i8
  call void @_ZN6Gluco25lboolC2Eh(ptr noundef nonnull align 1 dereferenceable(1) %3, i8 noundef zeroext %16)
  %17 = getelementptr inbounds %"class.Gluco2::lbool", ptr %3, i32 0, i32 0
  %18 = load i8, ptr %17, align 1
  ret i8 %18
}

; Function Attrs: mustprogress nounwind uwtable
define linkonce_odr noundef nonnull align 1 dereferenceable(1) ptr @_ZNK6Gluco23vecINS_5lboolEEixEi(ptr noundef nonnull align 8 dereferenceable(16) %0, i32 noundef %1) #2 comdat align 2 {
  %3 = alloca ptr, align 8
  %4 = alloca i32, align 4
  store ptr %0, ptr %3, align 8
  store i32 %1, ptr %4, align 4
  %5 = load ptr, ptr %3, align 8
  %6 = getelementptr inbounds %"class.Gluco2::vec.1", ptr %5, i32 0, i32 0
  %7 = load ptr, ptr %6, align 8
  %8 = load i32, ptr %4, align 4
  %9 = sext i32 %8 to i64
  %10 = getelementptr inbounds %"class.Gluco2::lbool", ptr %7, i64 %9
  ret ptr %10
}

; Function Attrs: mustprogress nounwind uwtable
define linkonce_odr noundef nonnull align 1 dereferenceable(1) ptr @_ZN6Gluco23vecINS_5lboolEEixEi(ptr noundef nonnull align 8 dereferenceable(16) %0, i32 noundef %1) #2 comdat align 2 {
  %3 = alloca ptr, align 8
  %4 = alloca i32, align 4
  store ptr %0, ptr %3, align 8
  store i32 %1, ptr %4, align 4
  %5 = load ptr, ptr %3, align 8
  %6 = getelementptr inbounds %"class.Gluco2::vec.1", ptr %5, i32 0, i32 0
  %7 = load ptr, ptr %6, align 8
  %8 = load i32, ptr %4, align 4
  %9 = sext i32 %8 to i64
  %10 = getelementptr inbounds %"class.Gluco2::lbool", ptr %7, i64 %9
  ret ptr %10
}

; Function Attrs: mustprogress nounwind uwtable
define linkonce_odr noundef i32 @_ZN6Gluco23varENS_3LitE(i32 %0) #2 comdat {
  %2 = alloca %"struct.Gluco2::Lit", align 4
  %3 = getelementptr inbounds %"struct.Gluco2::Lit", ptr %2, i32 0, i32 0
  store i32 %0, ptr %3, align 4
  %4 = getelementptr inbounds %"struct.Gluco2::Lit", ptr %2, i32 0, i32 0
  %5 = load i32, ptr %4, align 4
  %6 = ashr i32 %5, 1
  ret i32 %6
}

; Function Attrs: mustprogress nounwind uwtable
define linkonce_odr void @_ZN6Gluco25lboolC2Eb(ptr noundef nonnull align 1 dereferenceable(1) %0, i1 noundef zeroext %1) unnamed_addr #2 comdat align 2 {
  %3 = alloca ptr, align 8
  %4 = alloca i8, align 1
  store ptr %0, ptr %3, align 8
  %5 = zext i1 %1 to i8
  store i8 %5, ptr %4, align 1
  %6 = load ptr, ptr %3, align 8
  %7 = getelementptr inbounds %"class.Gluco2::lbool", ptr %6, i32 0, i32 0
  %8 = load i8, ptr %4, align 1
  %9 = trunc i8 %8 to i1
  %10 = xor i1 %9, true
  %11 = zext i1 %10 to i8
  store i8 %11, ptr %7, align 1
  ret void
}

; Function Attrs: mustprogress nounwind uwtable
define linkonce_odr noundef zeroext i1 @_ZN6Gluco24signENS_3LitE(i32 %0) #2 comdat {
  %2 = alloca %"struct.Gluco2::Lit", align 4
  %3 = getelementptr inbounds %"struct.Gluco2::Lit", ptr %2, i32 0, i32 0
  store i32 %0, ptr %3, align 4
  %4 = getelementptr inbounds %"struct.Gluco2::Lit", ptr %2, i32 0, i32 0
  %5 = load i32, ptr %4, align 4
  %6 = and i32 %5, 1
  %7 = icmp ne i32 %6, 0
  ret i1 %7
}

; Function Attrs: mustprogress nounwind uwtable
define linkonce_odr noundef zeroext i1 @_ZNK6Gluco25lboolneES0_(ptr noundef nonnull align 1 dereferenceable(1) %0, i8 %1) #2 comdat align 2 {
  %3 = alloca %"class.Gluco2::lbool", align 1
  %4 = alloca ptr, align 8
  %5 = alloca %"class.Gluco2::lbool", align 1
  %6 = getelementptr inbounds %"class.Gluco2::lbool", ptr %3, i32 0, i32 0
  store i8 %1, ptr %6, align 1
  store ptr %0, ptr %4, align 8
  %7 = load ptr, ptr %4, align 8
  call void @llvm.memcpy.p0.p0.i64(ptr align 1 %5, ptr align 1 %3, i64 1, i1 false)
  %8 = getelementptr inbounds %"class.Gluco2::lbool", ptr %5, i32 0, i32 0
  %9 = load i8, ptr %8, align 1
  %10 = call noundef zeroext i1 @_ZNK6Gluco25lbooleqES0_(ptr noundef nonnull align 1 dereferenceable(1) %7, i8 %9)
  %11 = xor i1 %10, true
  ret i1 %11
}

; Function Attrs: mustprogress nounwind uwtable
define linkonce_odr void @_ZN6Gluco25lboolC2Eh(ptr noundef nonnull align 1 dereferenceable(1) %0, i8 noundef zeroext %1) unnamed_addr #2 comdat align 2 {
  %3 = alloca ptr, align 8
  %4 = alloca i8, align 1
  store ptr %0, ptr %3, align 8
  store i8 %1, ptr %4, align 1
  %5 = load ptr, ptr %3, align 8
  %6 = getelementptr inbounds %"class.Gluco2::lbool", ptr %5, i32 0, i32 0
  %7 = load i8, ptr %4, align 1
  store i8 %7, ptr %6, align 1
  ret void
}

; Function Attrs: mustprogress uwtable
define linkonce_odr i8 @_ZNK6Gluco26Solver10modelValueENS_3LitE(ptr noundef nonnull align 8 dereferenceable(1416) %0, i32 %1) #1 comdat align 2 {
  %3 = alloca %"class.Gluco2::lbool", align 1
  %4 = alloca %"struct.Gluco2::Lit", align 4
  %5 = alloca ptr, align 8
  %6 = alloca %"struct.Gluco2::Lit", align 4
  %7 = alloca %"struct.Gluco2::Lit", align 4
  %8 = getelementptr inbounds %"struct.Gluco2::Lit", ptr %4, i32 0, i32 0
  store i32 %1, ptr %8, align 4
  store ptr %0, ptr %5, align 8
  %9 = load ptr, ptr %5, align 8
  %10 = getelementptr inbounds %"class.Gluco2::Solver", ptr %9, i32 0, i32 11
  call void @llvm.memcpy.p0.p0.i64(ptr align 4 %6, ptr align 4 %4, i64 4, i1 false)
  %11 = getelementptr inbounds %"struct.Gluco2::Lit", ptr %6, i32 0, i32 0
  %12 = load i32, ptr %11, align 4
  %13 = call noundef i32 @_ZN6Gluco23varENS_3LitE(i32 %12)
  %14 = call noundef nonnull align 1 dereferenceable(1) ptr @_ZNK6Gluco23vecINS_5lboolEEixEi(ptr noundef nonnull align 8 dereferenceable(16) %10, i32 noundef %13)
  call void @llvm.memcpy.p0.p0.i64(ptr align 4 %7, ptr align 4 %4, i64 4, i1 false)
  %15 = getelementptr inbounds %"struct.Gluco2::Lit", ptr %7, i32 0, i32 0
  %16 = load i32, ptr %15, align 4
  %17 = call noundef zeroext i1 @_ZN6Gluco24signENS_3LitE(i32 %16)
  %18 = call i8 @_ZNK6Gluco25lbooleoEb(ptr noundef nonnull align 1 dereferenceable(1) %14, i1 noundef zeroext %17)
  %19 = getelementptr inbounds %"class.Gluco2::lbool", ptr %3, i32 0, i32 0
  store i8 %18, ptr %19, align 1
  %20 = getelementptr inbounds %"class.Gluco2::lbool", ptr %3, i32 0, i32 0
  %21 = load i8, ptr %20, align 1
  ret i8 %21
}

; Function Attrs: mustprogress nounwind uwtable
define linkonce_odr i32 @_ZN6Gluco25toLitEi(i32 noundef %0) #2 comdat {
  %2 = alloca %"struct.Gluco2::Lit", align 4
  %3 = alloca i32, align 4
  store i32 %0, ptr %3, align 4
  %4 = load i32, ptr %3, align 4
  %5 = getelementptr inbounds %"struct.Gluco2::Lit", ptr %2, i32 0, i32 0
  store i32 %4, ptr %5, align 4
  %6 = getelementptr inbounds %"struct.Gluco2::Lit", ptr %2, i32 0, i32 0
  %7 = load i32, ptr %6, align 4
  ret i32 %7
}

; Function Attrs: mustprogress nounwind uwtable
define linkonce_odr noundef nonnull align 4 dereferenceable(4) ptr @_ZN6Gluco23vecIjEixEi(ptr noundef nonnull align 8 dereferenceable(16) %0, i32 noundef %1) #2 comdat align 2 {
  %3 = alloca ptr, align 8
  %4 = alloca i32, align 4
  store ptr %0, ptr %3, align 8
  store i32 %1, ptr %4, align 4
  %5 = load ptr, ptr %3, align 8
  %6 = getelementptr inbounds %"class.Gluco2::vec.5", ptr %5, i32 0, i32 0
  %7 = load ptr, ptr %6, align 8
  %8 = load i32, ptr %4, align 4
  %9 = sext i32 %8 to i64
  %10 = getelementptr inbounds i32, ptr %7, i64 %9
  ret ptr %10
}

; Function Attrs: mustprogress nounwind uwtable
define linkonce_odr noundef i32 @_ZNK6Gluco23vecIjE4sizeEv(ptr noundef nonnull align 8 dereferenceable(16) %0) #2 comdat align 2 {
  %2 = alloca ptr, align 8
  store ptr %0, ptr %2, align 8
  %3 = load ptr, ptr %2, align 8
  %4 = getelementptr inbounds %"class.Gluco2::vec.5", ptr %3, i32 0, i32 1
  %5 = load i32, ptr %4, align 8
  ret i32 %5
}

; Function Attrs: mustprogress uwtable
define void @_ZN6Gluco210SimpSolver11extendModelEv(ptr noundef nonnull align 8 dereferenceable(1684) %0) #1 align 2 {
  %2 = alloca ptr, align 8
  %3 = alloca i32, align 4
  %4 = alloca i32, align 4
  %5 = alloca %"struct.Gluco2::Lit", align 4
  %6 = alloca %"class.Gluco2::lbool", align 1
  %7 = alloca %"struct.Gluco2::Lit", align 4
  %8 = alloca %"class.Gluco2::lbool", align 1
  %9 = alloca %"struct.Gluco2::Lit", align 4
  %10 = alloca %"class.Gluco2::lbool", align 1
  %11 = alloca %"struct.Gluco2::Lit", align 4
  %12 = alloca %"struct.Gluco2::Lit", align 4
  store ptr %0, ptr %2, align 8
  %13 = load ptr, ptr %2, align 8
  %14 = getelementptr inbounds %"class.Gluco2::SimpSolver", ptr %13, i32 0, i32 17
  %15 = call noundef i32 @_ZNK6Gluco23vecIjE4sizeEv(ptr noundef nonnull align 8 dereferenceable(16) %14)
  %16 = sub nsw i32 %15, 1
  store i32 %16, ptr %3, align 4
  br label %17

17:                                               ; preds = %67, %1
  %18 = load i32, ptr %3, align 4
  %19 = icmp sgt i32 %18, 0
  br i1 %19, label %20, label %71

20:                                               ; preds = %17
  %21 = getelementptr inbounds %"class.Gluco2::SimpSolver", ptr %13, i32 0, i32 17
  %22 = load i32, ptr %3, align 4
  %23 = add nsw i32 %22, -1
  store i32 %23, ptr %3, align 4
  %24 = call noundef nonnull align 4 dereferenceable(4) ptr @_ZN6Gluco23vecIjEixEi(ptr noundef nonnull align 8 dereferenceable(16) %21, i32 noundef %22)
  %25 = load i32, ptr %24, align 4
  store i32 %25, ptr %4, align 4
  br label %26

26:                                               ; preds = %45, %20
  %27 = load i32, ptr %4, align 4
  %28 = icmp sgt i32 %27, 1
  br i1 %28, label %29, label %50

29:                                               ; preds = %26
  %30 = getelementptr inbounds %"class.Gluco2::SimpSolver", ptr %13, i32 0, i32 17
  %31 = load i32, ptr %3, align 4
  %32 = call noundef nonnull align 4 dereferenceable(4) ptr @_ZN6Gluco23vecIjEixEi(ptr noundef nonnull align 8 dereferenceable(16) %30, i32 noundef %31)
  %33 = load i32, ptr %32, align 4
  %34 = call i32 @_ZN6Gluco25toLitEi(i32 noundef %33)
  %35 = getelementptr inbounds %"struct.Gluco2::Lit", ptr %7, i32 0, i32 0
  store i32 %34, ptr %35, align 4
  %36 = getelementptr inbounds %"struct.Gluco2::Lit", ptr %7, i32 0, i32 0
  %37 = load i32, ptr %36, align 4
  %38 = call i8 @_ZNK6Gluco26Solver10modelValueENS_3LitE(ptr noundef nonnull align 8 dereferenceable(1416) %13, i32 %37)
  %39 = getelementptr inbounds %"class.Gluco2::lbool", ptr %6, i32 0, i32 0
  store i8 %38, ptr %39, align 1
  call void @_ZN6Gluco25lboolC2Eh(ptr noundef nonnull align 1 dereferenceable(1) %8, i8 noundef zeroext 1)
  %40 = getelementptr inbounds %"class.Gluco2::lbool", ptr %8, i32 0, i32 0
  %41 = load i8, ptr %40, align 1
  %42 = call noundef zeroext i1 @_ZNK6Gluco25lboolneES0_(ptr noundef nonnull align 1 dereferenceable(1) %6, i8 %41)
  br i1 %42, label %43, label %44

43:                                               ; preds = %29
  br label %66

44:                                               ; preds = %29
  br label %45

45:                                               ; preds = %44
  %46 = load i32, ptr %4, align 4
  %47 = add nsw i32 %46, -1
  store i32 %47, ptr %4, align 4
  %48 = load i32, ptr %3, align 4
  %49 = add nsw i32 %48, -1
  store i32 %49, ptr %3, align 4
  br label %26, !llvm.loop !9

50:                                               ; preds = %26
  %51 = getelementptr inbounds %"class.Gluco2::SimpSolver", ptr %13, i32 0, i32 17
  %52 = load i32, ptr %3, align 4
  %53 = call noundef nonnull align 4 dereferenceable(4) ptr @_ZN6Gluco23vecIjEixEi(ptr noundef nonnull align 8 dereferenceable(16) %51, i32 noundef %52)
  %54 = load i32, ptr %53, align 4
  %55 = call i32 @_ZN6Gluco25toLitEi(i32 noundef %54)
  %56 = getelementptr inbounds %"struct.Gluco2::Lit", ptr %9, i32 0, i32 0
  store i32 %55, ptr %56, align 4
  call void @llvm.memcpy.p0.p0.i64(ptr align 4 %5, ptr align 4 %9, i64 4, i1 false)
  call void @llvm.memcpy.p0.p0.i64(ptr align 4 %11, ptr align 4 %5, i64 4, i1 false)
  %57 = getelementptr inbounds %"struct.Gluco2::Lit", ptr %11, i32 0, i32 0
  %58 = load i32, ptr %57, align 4
  %59 = call noundef zeroext i1 @_ZN6Gluco24signENS_3LitE(i32 %58)
  %60 = xor i1 %59, true
  call void @_ZN6Gluco25lboolC2Eb(ptr noundef nonnull align 1 dereferenceable(1) %10, i1 noundef zeroext %60)
  %61 = getelementptr inbounds %"class.Gluco2::Solver", ptr %13, i32 0, i32 11
  call void @llvm.memcpy.p0.p0.i64(ptr align 4 %12, ptr align 4 %5, i64 4, i1 false)
  %62 = getelementptr inbounds %"struct.Gluco2::Lit", ptr %12, i32 0, i32 0
  %63 = load i32, ptr %62, align 4
  %64 = call noundef i32 @_ZN6Gluco23varENS_3LitE(i32 %63)
  %65 = call noundef nonnull align 1 dereferenceable(1) ptr @_ZN6Gluco23vecINS_5lboolEEixEi(ptr noundef nonnull align 8 dereferenceable(16) %61, i32 noundef %64)
  call void @llvm.memcpy.p0.p0.i64(ptr align 1 %65, ptr align 1 %10, i64 1, i1 false)
  br label %66

66:                                               ; preds = %50, %43
  br label %67

67:                                               ; preds = %66
  %68 = load i32, ptr %4, align 4
  %69 = load i32, ptr %3, align 4
  %70 = sub nsw i32 %69, %68
  store i32 %70, ptr %3, align 4
  br label %17, !llvm.loop !10

71:                                               ; preds = %17
  ret void
}